target datalayout = "e-m:e-p270:32:32-p271:32:32-p272:64:64-i64:64-i128:128-f80:128-n8:16:32:64-S128"
target triple = "x86_64-pc-linux-gnu"

%struct.lua_State = type { %struct.GCRef, i8, i8, i8, i8, %struct.MRef, %struct.GCRef, ptr, ptr, %struct.MRef, %struct.MRef, %struct.GCRef, %struct.GCRef, ptr, i32 }
%struct.MRef = type { i64 }
%struct.GCRef = type { i64 }
%union.TValue = type { i64 }
%struct.CTState = type { ptr, i32, i32, ptr, ptr, ptr, %struct.CCallback, [128 x i16] }
%struct.CCallback = type { [8 x %union.FPRCBArg], [8 x i64], ptr, ptr, ptr, i32, i32, i32 }
%union.FPRCBArg = type { double }
%struct.global_State = type { ptr, ptr, %struct.GCState, %struct.GCstr, i8, i8, i8, i8, %struct.StrInternState, i32, %struct.GCRef, %struct.SBuf, %union.TValue, %union.TValue, %struct.Node, %union.TValue, %struct.GCupval, i32, i32, ptr, ptr, ptr, i32, i32, %struct.GCRef, %struct.MRef, %struct.MRef, %struct.PRNGState, [39 x %struct.GCRef] }
%struct.GCState = type { i64, i64, i8, i8, i8, i8, i32, %struct.GCRef, %struct.MRef, %struct.GCRef, %struct.GCRef, %struct.GCRef, %struct.GCRef, i64, i64, i32, i32, %struct.MRef }
%struct.GCstr = type { %struct.GCRef, i8, i8, i8, i8, i32, i32, i32 }
%struct.StrInternState = type { ptr, i32, i32, i32, i8, i8, i8, i8, i64 }
%struct.SBuf = type { ptr, ptr, ptr, %struct.MRef }
%struct.Node = type { %union.TValue, %union.TValue, %struct.MRef }
%struct.GCupval = type { %struct.GCRef, i8, i8, i8, i8, %union.anon, %struct.MRef, i32 }
%union.anon = type { %struct.anon.1 }
%struct.anon.1 = type { %struct.GCRef, %struct.GCRef }
%struct.PRNGState = type { [4 x i64] }
%struct.GCcdata = type { %struct.GCRef, i8, i8, i16 }
%struct.CType = type { i32, i32, i16, i16, %struct.GCRef }

; Function Attrs: alwaysinline nounwind uwtable
define internal i32 @ctype_check(ptr noundef %0, i32 noundef %1) #3 {
  %3 = alloca ptr, align 8
  %4 = alloca i32, align 4
  store ptr %0, ptr %3, align 8, !tbaa !9
  store i32 %1, ptr %4, align 4, !tbaa !34
  %5 = load i32, ptr %4, align 4, !tbaa !34
  ret i32 %5
}

; Function Attrs: alwaysinline nounwind uwtable
define internal ptr @ctype_child(ptr noundef %0, ptr noundef %1) #3 {
  %3 = alloca ptr, align 8
  %4 = alloca ptr, align 8
  store ptr %0, ptr %3, align 8, !tbaa !9
  store ptr %1, ptr %4, align 8, !tbaa !38
  %5 = load ptr, ptr %3, align 8, !tbaa !9
  %6 = load ptr, ptr %4, align 8, !tbaa !38
  %7 = getelementptr inbounds nuw %struct.CType, ptr %6, i32 0, i32 0
  %8 = load i32, ptr %7, align 8, !tbaa !55
  %9 = and i32 %8, 65535
  %10 = call ptr @ctype_get(ptr noundef %5, i32 noundef %9)
  ret ptr %10
}

; Function Attrs: alwaysinline nounwind uwtable
define internal ptr @ctype_get(ptr noundef %0, i32 noundef %1) #3 {
  %3 = alloca ptr, align 8
  %4 = alloca i32, align 4
  store ptr %0, ptr %3, align 8, !tbaa !9
  store i32 %1, ptr %4, align 4, !tbaa !34
  %5 = load ptr, ptr %3, align 8, !tbaa !9
  %6 = getelementptr inbounds nuw %struct.CTState, ptr %5, i32 0, i32 0
  %7 = load ptr, ptr %6, align 8, !tbaa !60
  %8 = load ptr, ptr %3, align 8, !tbaa !9
  %9 = load i32, ptr %4, align 4, !tbaa !34
  %10 = call i32 @ctype_check(ptr noundef %8, i32 noundef %9)
  %11 = zext i32 %10 to i64
  %12 = getelementptr inbounds nuw %struct.CType, ptr %7, i64 %11
  ret ptr %12
}

; Function Attrs: alwaysinline nounwind uwtable
define internal ptr @ctype_raw(ptr noundef %0, i32 noundef %1) #3 {
  %3 = alloca ptr, align 8
  %4 = alloca i32, align 4
  %5 = alloca ptr, align 8
  store ptr %0, ptr %3, align 8, !tbaa !9
  store i32 %1, ptr %4, align 4, !tbaa !34
  call void @llvm.lifetime.start.p0(i64 8, ptr %5) #10
  %6 = load ptr, ptr %3, align 8, !tbaa !9
  %7 = load i32, ptr %4, align 4, !tbaa !34
  %8 = call ptr @ctype_get(ptr noundef %6, i32 noundef %7)
  store ptr %8, ptr %5, align 8, !tbaa !38
  br label %9

9:                                                ; preds = %15, %2
  %10 = load ptr, ptr %5, align 8, !tbaa !38
  %11 = getelementptr inbounds nuw %struct.CType, ptr %10, i32 0, i32 0
  %12 = load i32, ptr %11, align 8, !tbaa !55
  %13 = lshr i32 %12, 28
  %14 = icmp eq i32 %13, 8
  br i1 %14, label %15, label %19

15:                                               ; preds = %9
  %16 = load ptr, ptr %3, align 8, !tbaa !9
  %17 = load ptr, ptr %5, align 8, !tbaa !38
  %18 = call ptr @ctype_child(ptr noundef %16, ptr noundef %17)
  store ptr %18, ptr %5, align 8, !tbaa !38
  br label %9, !llvm.loop !64

19:                                               ; preds = %9
  %20 = load ptr, ptr %5, align 8, !tbaa !38
  call void @llvm.lifetime.end.p0(i64 8, ptr %5) #10
  ret ptr %20
}

; Function Attrs: nounwind uwtable
define internal ptr @ffi_checkcdata(ptr noundef %0, i32 noundef %1) #0 {
  %3 = alloca ptr, align 8
  %4 = alloca i32, align 4
  %5 = alloca ptr, align 8
  store ptr %0, ptr %3, align 8, !tbaa !4
  store i32 %1, ptr %4, align 4, !tbaa !34
  call void @llvm.lifetime.start.p0(i64 8, ptr %5) #10
  %6 = load ptr, ptr %3, align 8, !tbaa !4
  %7 = getelementptr inbounds nuw %struct.lua_State, ptr %6, i32 0, i32 7
  %8 = load ptr, ptr %7, align 8, !tbaa !37
  %9 = load i32, ptr %4, align 4, !tbaa !34
  %10 = sext i32 %9 to i64
  %11 = getelementptr inbounds %union.TValue, ptr %8, i64 %10
  %12 = getelementptr inbounds %union.TValue, ptr %11, i64 -1
  store ptr %12, ptr %5, align 8, !tbaa !30
  %13 = load ptr, ptr %5, align 8, !tbaa !30
  %14 = load ptr, ptr %3, align 8, !tbaa !4
  %15 = getelementptr inbounds nuw %struct.lua_State, ptr %14, i32 0, i32 8
  %16 = load ptr, ptr %15, align 8, !tbaa !11
  %17 = icmp ult ptr %13, %16
  br i1 %17, label %18, label %24

18:                                               ; preds = %2
  %19 = load ptr, ptr %5, align 8, !tbaa !30
  %20 = load i64, ptr %19, align 8, !tbaa !26
  %21 = ashr i64 %20, 47
  %22 = trunc i64 %21 to i32
  %23 = icmp eq i32 %22, -11
  br i1 %23, label %27, label %24

24:                                               ; preds = %18, %2
  %25 = load ptr, ptr %3, align 8, !tbaa !4
  %26 = load i32, ptr %4, align 4, !tbaa !34
  call void @lj_err_argt(ptr noundef %25, i32 noundef %26, i32 noundef 10) #11
  unreachable

27:                                               ; preds = %18
  %28 = load ptr, ptr %5, align 8, !tbaa !30
  %29 = getelementptr inbounds nuw %struct.GCRef, ptr %28, i32 0, i32 0
  %30 = load i64, ptr %29, align 8, !tbaa !26
  %31 = and i64 %30, 140737488355327
  %32 = inttoptr i64 %31 to ptr
  call void @llvm.lifetime.end.p0(i64 8, ptr %5) #10
  ret ptr %32
}

; Function Attrs: alwaysinline nounwind uwtable
define internal ptr @ctype_cts(ptr noundef %0) #3 {
  %2 = alloca ptr, align 8
  %3 = alloca ptr, align 8
  store ptr %0, ptr %2, align 8, !tbaa !4
  call void @llvm.lifetime.start.p0(i64 8, ptr %3) #10
  %4 = load ptr, ptr %2, align 8, !tbaa !4
  %5 = getelementptr inbounds nuw %struct.lua_State, ptr %4, i32 0, i32 5
  %6 = getelementptr inbounds nuw %struct.MRef, ptr %5, i32 0, i32 0
  %7 = load i64, ptr %6, align 8, !tbaa !27
  %8 = inttoptr i64 %7 to ptr
  %9 = getelementptr inbounds nuw %struct.global_State, ptr %8, i32 0, i32 26
  %10 = getelementptr inbounds nuw %struct.MRef, ptr %9, i32 0, i32 0
  %11 = load i64, ptr %10, align 8, !tbaa !61
  %12 = inttoptr i64 %11 to ptr
  store ptr %12, ptr %3, align 8, !tbaa !9
  %13 = load ptr, ptr %2, align 8, !tbaa !4
  %14 = load ptr, ptr %3, align 8, !tbaa !9
  %15 = getelementptr inbounds nuw %struct.CTState, ptr %14, i32 0, i32 3
  store ptr %13, ptr %15, align 8, !tbaa !62
  %16 = load ptr, ptr %3, align 8, !tbaa !9
  call void @llvm.lifetime.end.p0(i64 8, ptr %3) #10
  ret ptr %16
}

; Function Attrs: nounwind uwtable
define internal i32 @lj_cf_ffi_meta___call(ptr noundef %0) #0 {
  %2 = alloca i32, align 4
  %3 = alloca ptr, align 8
  %4 = alloca ptr, align 8
  %5 = alloca ptr, align 8
  %6 = alloca i32, align 4
  %7 = alloca ptr, align 8
  %8 = alloca ptr, align 8
  %9 = alloca i32, align 4
  %10 = alloca i32, align 4
  %11 = alloca i32, align 4
  store ptr %0, ptr %3, align 8, !tbaa !4
  call void @llvm.lifetime.start.p0(i64 8, ptr %4) #10
  %12 = load ptr, ptr %3, align 8, !tbaa !4
  %13 = call ptr @ctype_cts(ptr noundef %12)
  store ptr %13, ptr %4, align 8, !tbaa !9
  call void @llvm.lifetime.start.p0(i64 8, ptr %5) #10
  %14 = load ptr, ptr %3, align 8, !tbaa !4
  %15 = call ptr @ffi_checkcdata(ptr noundef %14, i32 noundef 1)
  store ptr %15, ptr %5, align 8, !tbaa !50
  call void @llvm.lifetime.start.p0(i64 4, ptr %6) #10
  %16 = load ptr, ptr %5, align 8, !tbaa !50
  %17 = getelementptr inbounds nuw %struct.GCcdata, ptr %16, i32 0, i32 3
  %18 = load i16, ptr %17, align 2, !tbaa !52
  %19 = zext i16 %18 to i32
  store i32 %19, ptr %6, align 4, !tbaa !34
  call void @llvm.lifetime.start.p0(i64 8, ptr %7) #10
  call void @llvm.lifetime.start.p0(i64 8, ptr %8) #10
  call void @llvm.lifetime.start.p0(i64 4, ptr %9) #10
  store i32 9, ptr %9, align 4, !tbaa !34
  %20 = load ptr, ptr %5, align 8, !tbaa !50
  %21 = getelementptr inbounds nuw %struct.GCcdata, ptr %20, i32 0, i32 3
  %22 = load i16, ptr %21, align 2, !tbaa !52
  %23 = zext i16 %22 to i32
  %24 = icmp eq i32 %23, 22
  br i1 %24, label %25, label %29

25:                                               ; preds = %1
  %26 = load ptr, ptr %5, align 8, !tbaa !50
  %27 = getelementptr inbounds %struct.GCcdata, ptr %26, i64 1
  %28 = load i32, ptr %27, align 4, !tbaa !34
  store i32 %28, ptr %6, align 4, !tbaa !34
  store i32 19, ptr %9, align 4, !tbaa !34
  br label %41

29:                                               ; preds = %1
  call void @llvm.lifetime.start.p0(i64 4, ptr %10) #10
  %30 = load ptr, ptr %3, align 8, !tbaa !4
  %31 = load ptr, ptr %5, align 8, !tbaa !50
  %32 = call i32 @lj_ccall_func(ptr noundef %30, ptr noundef %31)
  store i32 %32, ptr %10, align 4, !tbaa !34
  %33 = load i32, ptr %10, align 4, !tbaa !34
  %34 = icmp sge i32 %33, 0
  br i1 %34, label %35, label %37

35:                                               ; preds = %29
  %36 = load i32, ptr %10, align 4, !tbaa !34
  store i32 %36, ptr %2, align 4
  store i32 1, ptr %11, align 4
  br label %38

37:                                               ; preds = %29
  store i32 0, ptr %11, align 4
  br label %38

38:                                               ; preds = %37, %35
  call void @llvm.lifetime.end.p0(i64 4, ptr %10) #10
  %39 = load i32, ptr %11, align 4
  switch i32 %39, label %79 [
    i32 0, label %40
  ]

40:                                               ; preds = %38
  br label %41

41:                                               ; preds = %40, %25
  %42 = load ptr, ptr %4, align 8, !tbaa !9
  %43 = load i32, ptr %6, align 4, !tbaa !34
  %44 = call ptr @ctype_raw(ptr noundef %42, i32 noundef %43)
  store ptr %44, ptr %7, align 8, !tbaa !38
  %45 = load ptr, ptr %7, align 8, !tbaa !38
  %46 = getelementptr inbounds nuw %struct.CType, ptr %45, i32 0, i32 0
  %47 = load i32, ptr %46, align 8, !tbaa !55
  %48 = lshr i32 %47, 28
  %49 = icmp eq i32 %48, 2
  br i1 %49, label %50, label %55

50:                                               ; preds = %41
  %51 = load ptr, ptr %7, align 8, !tbaa !38
  %52 = getelementptr inbounds nuw %struct.CType, ptr %51, i32 0, i32 0
  %53 = load i32, ptr %52, align 8, !tbaa !55
  %54 = and i32 %53, 65535
  store i32 %54, ptr %6, align 4, !tbaa !34
  br label %55

55:                                               ; preds = %50, %41
  %56 = load ptr, ptr %4, align 8, !tbaa !9
  %57 = load i32, ptr %6, align 4, !tbaa !34
  %58 = load i32, ptr %9, align 4, !tbaa !34
  %59 = call ptr @lj_ctype_meta(ptr noundef %56, i32 noundef %57, i32 noundef %58)
  store ptr %59, ptr %8, align 8, !tbaa !30
  %60 = load ptr, ptr %8, align 8, !tbaa !30
  %61 = icmp ne ptr %60, null
  br i1 %61, label %62, label %66

62:                                               ; preds = %55
  %63 = load ptr, ptr %3, align 8, !tbaa !4
  %64 = load ptr, ptr %8, align 8, !tbaa !30
  %65 = call i32 @lj_meta_tailcall(ptr noundef %63, ptr noundef %64)
  store i32 %65, ptr %2, align 4
  store i32 1, ptr %11, align 4
  br label %79

66:                                               ; preds = %55
  %67 = load i32, ptr %9, align 4, !tbaa !34
  %68 = icmp eq i32 %67, 9
  br i1 %68, label %69, label %75

69:                                               ; preds = %66
  %70 = load ptr, ptr %3, align 8, !tbaa !4
  %71 = load ptr, ptr %3, align 8, !tbaa !4
  %72 = load i32, ptr %6, align 4, !tbaa !34
  %73 = call ptr @lj_ctype_repr(ptr noundef %71, i32 noundef %72, ptr noundef null)
  %74 = getelementptr inbounds %struct.GCstr, ptr %73, i64 1
  call void (ptr, i32, ...) @lj_err_callerv(ptr noundef %70, i32 noundef 3415, ptr noundef %74) #11
  unreachable

75:                                               ; preds = %66
  br label %76

76:                                               ; preds = %75
  %77 = load ptr, ptr %3, align 8, !tbaa !4
  %78 = call i32 @lj_cf_ffi_new(ptr noundef %77)
  store i32 %78, ptr %2, align 4
  store i32 1, ptr %11, align 4
  br label %79

79:                                               ; preds = %76, %62, %38
  call void @llvm.lifetime.end.p0(i64 4, ptr %9) #10
  call void @llvm.lifetime.end.p0(i64 8, ptr %8) #10
  call void @llvm.lifetime.end.p0(i64 8, ptr %7) #10
  call void @llvm.lifetime.end.p0(i64 4, ptr %6) #10
  call void @llvm.lifetime.end.p0(i64 8, ptr %5) #10
  call void @llvm.lifetime.end.p0(i64 8, ptr %4) #10
  %80 = load i32, ptr %2, align 4
  ret i32 %80
}