; Function Attrs: nounwind uwtable
define internal i32 @lj_cf_ffi_meta___call(ptr noundef %0) #0 {
  %2 = getelementptr inbounds nuw i8, ptr %0, i64 16
  %3 = load i64, ptr %2, align 8, !tbaa !24
  %4 = inttoptr i64 %3 to ptr
  %5 = getelementptr inbounds nuw i8, ptr %4, i64 384
  %6 = load i64, ptr %5, align 8, !tbaa !41
  %7 = inttoptr i64 %6 to ptr
  %8 = getelementptr inbounds nuw i8, ptr %7, i64 16
  store ptr %0, ptr %8, align 8, !tbaa !42
  %9 = getelementptr inbounds nuw i8, ptr %0, i64 32
  %10 = load ptr, ptr %9, align 8, !tbaa !44
  %11 = getelementptr inbounds nuw i8, ptr %0, i64 40
  %12 = load ptr, ptr %11, align 8, !tbaa !4
  %13 = icmp ult ptr %10, %12
  br i1 %13, label %14, label %17

14:                                               ; preds = %1
  %15 = load i64, ptr %10, align 8, !tbaa !23
  %.mask.i = and i64 %15, -140737488355328
  %16 = icmp eq i64 %.mask.i, -1548112371908608
  br i1 %16, label %ffi_checkcdata.exit, label %17

17:                                               ; preds = %14, %1
  tail call void @lj_err_argt(ptr noundef nonnull %0, i32 noundef 1, i32 noundef 10) #10
  unreachable

ffi_checkcdata.exit:                              ; preds = %14
  %18 = and i64 %15, 140737488355327
  %19 = inttoptr i64 %18 to ptr
  %20 = getelementptr inbounds nuw i8, ptr %19, i64 10
  %21 = load i16, ptr %20, align 2, !tbaa !48
  %.not31 = icmp eq i16 %21, 22
  br i1 %.not31, label %22, label %25

22:                                               ; preds = %ffi_checkcdata.exit
  %23 = getelementptr inbounds nuw i8, ptr %19, i64 16
  %24 = load i32, ptr %23, align 4, !tbaa !43
  br label %29

25:                                               ; preds = %ffi_checkcdata.exit
  %26 = zext i16 %21 to i32
  %27 = tail call i32 @lj_ccall_func(ptr noundef nonnull %0, ptr noundef nonnull %19) #9
  %28 = icmp slt i32 %27, 0
  br i1 %28, label %29, label %45

29:                                               ; preds = %25, %22
  %.027 = phi i32 [ %24, %22 ], [ %26, %25 ]
  %.026 = phi i32 [ 19, %22 ], [ 9, %25 ]
  %30 = load ptr, ptr %7, align 8, !tbaa !51
  br label %31

31:                                               ; preds = %31, %29
  %.pn.in = phi i32 [ %.027, %29 ], [ %34, %31 ]
  %.pn = zext i32 %.pn.in to i64
  %.0.i = getelementptr inbounds nuw %struct.CType, ptr %30, i64 %.pn
  %32 = load i32, ptr %.0.i, align 8, !tbaa !52
  %33 = icmp slt i32 %32, -1879048192
  %34 = and i32 %32, 65535
  br i1 %33, label %31, label %ctype_raw.exit, !llvm.loop !54

ctype_raw.exit:                                   ; preds = %31
  %.mask = and i32 %32, -268435456
  %35 = icmp eq i32 %.mask, 536870912
  %spec.select = select i1 %35, i32 %34, i32 %.027
  %36 = tail call ptr @lj_ctype_meta(ptr noundef nonnull %7, i32 noundef %spec.select, i32 noundef %.026) #9
  %.not = icmp eq ptr %36, null
  br i1 %.not, label %39, label %37

37:                                               ; preds = %ctype_raw.exit
  %38 = tail call i32 @lj_meta_tailcall(ptr noundef %0, ptr noundef nonnull %36) #9
  br label %45

39:                                               ; preds = %ctype_raw.exit
  br i1 %.not31, label %43, label %40

40:                                               ; preds = %39
  %41 = tail call ptr @lj_ctype_repr(ptr noundef %0, i32 noundef %spec.select, ptr noundef null) #9
  %42 = getelementptr inbounds nuw i8, ptr %41, i64 24
  tail call void (ptr, i32, ...) @lj_err_callerv(ptr noundef %0, i32 noundef 3415, ptr noundef nonnull %42) #10
  unreachable

43:                                               ; preds = %39
  %44 = tail call i32 @lj_cf_ffi_new(ptr noundef %0)
  br label %45

45:                                               ; preds = %25, %43, %37
  %.1 = phi i32 [ %38, %37 ], [ 1, %43 ], [ %27, %25 ]
  ret i32 %.1
}